Certificate:
    Data:
        Version: 3 (0x2)
        Serial Number: 1 (0x1)
    Signature Algorithm: sha256WithRSAEncryption
        Issuer: C=CN, ST=Beijing, L=chaoyang, O=CUC, OU=SEC, CN=www.snrna.gov/emailAddress=635654964@qq.com
        Validity
            Not Before: Jul 20 02:57:41 2016 GMT
            Not After : Jul 20 02:57:41 2017 GMT
        Subject: C=CN, ST=Beijing, O=CUC, OU=SEC, CN=www.snrna.gov/emailAddress=635654964@qq.com
        Subject Public Key Info:
            Public Key Algorithm: rsaEncryption
                Public-Key: (2048 bit)
                Modulus:
                    00:a1:95:45:81:8a:41:70:c9:69:6a:a3:80:2c:1b:
                    dc:7d:16:b1:eb:cc:62:e8:99:9a:45:f9:22:dc:46:
                    c6:2e:34:c5:6e:b8:8b:35:39:4c:e6:26:0a:68:9e:
                    b5:5e:84:f7:f5:7d:28:4e:58:48:73:44:0c:5f:bb:
                    ea:35:0c:c1:b8:c8:21:08:50:d9:e4:2c:6d:3d:d3:
                    b8:8c:94:99:08:04:7b:68:57:1a:46:4b:96:07:49:
                    7c:3b:66:5a:2b:2c:92:97:5c:14:54:55:24:fb:96:
                    01:ed:eb:ff:98:fe:bb:77:db:10:0b:d2:e4:07:11:
                    2c:61:6a:20:ff:b9:20:65:14:79:af:ec:ea:1a:25:
                    73:1a:98:27:50:3c:8c:f2:ee:e8:2c:2f:00:22:37:
                    c8:ab:b9:11:57:92:f6:f1:2e:fc:8e:7c:d2:94:2a:
                    cd:92:0d:2b:c1:e7:89:68:4b:9a:e0:9a:c6:3b:ba:
                    89:39:09:6a:7f:00:9c:8f:64:5c:2c:1c:cc:83:85:
                    95:18:57:b4:31:fc:19:7d:d1:a9:9c:4d:91:69:ec:
                    9b:d5:b0:5a:8f:1b:c3:3d:95:cd:9c:ff:5e:94:00:
                    89:52:7d:f4:4f:8e:7c:a1:41:eb:ab:6e:e5:cf:06:
                    f5:ac:54:61:9a:81:25:9a:45:73:04:9d:64:1e:2c:
                    6c:a3
                Exponent: 65537 (0x10001)
        X509v3 extensions:
            X509v3 Basic Constraints: 
                CA:FALSE
            Netscape Comment: 
                OpenSSL Generated Certificate
            X509v3 Subject Key Identifier: 
                F9:A5:6A:38:30:12:70:EE:0A:4A:E0:E5:04:AD:CB:FA:0F:E8:DD:9B
            X509v3 Authority Key Identifier: 
                keyid:05:74:3D:11:D4:8D:09:D1:E1:22:06:0B:18:0D:CA:6E:0A:06:AD:FA

    Signature Algorithm: sha256WithRSAEncryption
         00:ae:37:b5:f1:0c:f7:92:32:b8:44:d7:96:76:81:c9:6c:62:
         cb:3e:2a:c8:de:19:65:c3:13:7f:d6:f6:52:7b:72:1d:e6:e4:
         33:2a:86:8f:0c:b9:1b:32:75:89:84:fe:57:77:f6:58:bb:b0:
         a8:a4:0d:c9:00:e3:da:79:96:bb:7f:34:01:c6:58:9d:36:c2:
         f2:b3:fe:8c:77:ae:39:2b:84:fa:3f:ff:55:6d:4a:60:f2:a3:
         e7:5e:57:5b:6e:a0:99:6f:c6:51:d5:88:b2:e5:a1:50:38:44:
         93:3e:d0:b3:6a:ce:9f:65:bd:fb:3e:6d:0b:8e:f9:b3:bb:1f:
         97:b1:c0:75:e5:35:d6:48:35:45:ee:e1:1f:6d:be:da:71:d3:
         9e:68:58:3e:b4:52:27:ff:e2:67:6e:d6:b7:25:3a:82:0c:a1:
         de:87:45:e4:b3:f5:12:53:44:46:40:ec:98:84:bf:20:a4:7d:
         90:6c:a4:59:ca:7b:fe:49:f6:f4:3e:75:f3:89:35:71:ae:f7:
         1d:97:8f:c9:82:c2:01:75:e2:1d:f0:46:9e:92:72:af:8f:77:
         3f:7f:29:43:4b:23:3e:df:0e:b3:b9:05:88:31:c7:72:e0:5f:
         17:6b:47:8f:40:61:eb:90:63:36:41:89:64:dd:7a:97:0d:96:
         1a:f6:4e:86:83
-----BEGIN CERTIFICATE-----
MIID8zCCAtqgAwIBAgIBATANBgkqhkiG9w0BAQsFADCBhzELMAkGA1UEBhMCQ04x
EDAOBgNVBAgMB0JlaWppbmcxETAPBgNVBAcMCGNoYW95YW5nMQwwCgYDVQQKDAND
VUMxDDAKBgNVBAsMA1NFQzEWMBQGA1UEAwwNd3d3LnNucm5hLmdvdjEfMB0GCSqG
SIb3DQEJARYQNjM1NjU0OTY0QHFxLmNvbTAeFw0xNjA3MjAwMjU3NDFaFw0xNzA3
MjAwMjU3NDFaMHQxCzAJBgNVBAYTAkNOMRAwDgYDVQQIDAdCZWlqaW5nMQwwCgYD
VQQKDANDVUMxDDAKBgNVBAsMA1NFQzEWMBQGA1UEAwwNd3d3LnNucm5hLmdvdjEf
MB0GCSqGSIb3DQEJARYQNjM1NjU0OTY0QHFxLmNvbTCCASIwDQYJKoZIhvcNAQEB
BQADggEPADCCAQoCggEBAKGVRYGKQXDJaWqjgCwb3H0WsevMYuiZmkX5ItxGxi40
xW64izU5TOYmCmietV6E9/V9KE5YSHNEDF+76jUMwbjIIQhQ2eQsbT3TuIyUmQgE
e2hXGkZLlgdJfDtmWisskpdcFFRVJPuWAe3r/5j+u3fbEAvS5AcRLGFqIP+5IGUU
ea/s6holcxqYJ1A8jPLu6CwvACI3yKu5EVeS9vEu/I580pQqzZINK8HniWhLmuCa
xju6iTkJan8AnI9kXCwczIOFlRhXtDH8GX3RqZxNkWnsm9WwWo8bwz2VzZz/XpQA
iVJ99E+OfKFB66tu5c8G9axUYZqBJZpFcwSdZB4sbKMCAwEAAaN7MHkwCQYDVR0T
BAIwADAsBglghkgBhvhCAQ0EHxYdT3BlblNTTCBHZW5lcmF0ZWQgQ2VydGlmaWNh
dGUwHQYDVR0OBBYEFPmlajgwEnDuCkrg5QSty/oP6N2bMB8GA1UdIwQYMBaAFAV0
PRHUjQnR4SIGCxgNym4KBq36MA0GCSqGSIb3DQEBCwUAA4IBAgAArje18Qz3kjK4
RNeWdoHJbGLLPirI3hllwxN/1vZSe3Id5uQzKoaPDLkbMnWJhP5Xd/ZYu7CopA3J
AOPaeZa7fzQBxlidNsLys/6Md645K4T6P/9VbUpg8qPnXldbbqCZb8ZR1Yiy5aFQ
OESTPtCzas6fZb37Pm0Ljvmzux+XscB15TXWSDVF7uEfbb7acdOeaFg+tFIn/+Jn
bta3JTqCDKHeh0Xks/USU0RGQOyYhL8gpH2QbKRZynv+Sfb0PnXziTVxrvcdl4/J
gsIBdeId8EaeknKvj3c/fylDSyM+3w6zuQWIMcdy4F8Xa0ePQGHrkGM2QYlk3XqX
DZYa9k6Ggw==
-----END CERTIFICATE-----
